; Function Attrs: nounwind uwtable
define internal void @_ZThn120_N4node4heap12_GLOBAL__N_118HeapSnapshotStreamD1Ev(ptr noundef %this) unnamed_addr #16 align 2 {
entry:
  %0 = getelementptr inbounds i8, ptr %this, i64 -120
  store ptr getelementptr inbounds ({ [30 x ptr], [20 x ptr], [8 x ptr] }, ptr @_ZTVN4node4heap12_GLOBAL__N_118HeapSnapshotStreamE, i64 0, i32 0, i64 2), ptr %0, align 8
  %add.ptr.i = getelementptr inbounds i8, ptr %this, i64 -64
  store ptr getelementptr inbounds ({ [30 x ptr], [20 x ptr], [8 x ptr] }, ptr @_ZTVN4node4heap12_GLOBAL__N_118HeapSnapshotStreamE, i64 0, i32 1, i64 2), ptr %add.ptr.i, align 8
  store ptr getelementptr inbounds ({ [30 x ptr], [20 x ptr], [8 x ptr] }, ptr @_ZTVN4node4heap12_GLOBAL__N_118HeapSnapshotStreamE, i64 0, i32 2, i64 2), ptr %this, align 8
  %snapshot_.i = getelementptr inbounds i8, ptr %this, i64 8
  %1 = load ptr, ptr %snapshot_.i, align 8
  %cmp.not.i.i = icmp eq ptr %1, null
  br i1 %cmp.not.i.i, label %_ZN4node4heap12_GLOBAL__N_118HeapSnapshotStreamD2Ev.exit, label %if.then.i.i

if.then.i.i:                                      ; preds = %entry
  tail call void @_ZN2v812HeapSnapshot6DeleteEv(ptr noundef nonnull align 1 dereferenceable(1) %1) #22
  br label %_ZN4node4heap12_GLOBAL__N_118HeapSnapshotStreamD2Ev.exit

_ZN4node4heap12_GLOBAL__N_118HeapSnapshotStreamD2Ev.exit: ; preds = %entry, %if.then.i.i
  store ptr null, ptr %snapshot_.i, align 8
  store ptr getelementptr inbounds ({ [20 x ptr] }, ptr @_ZTVN4node10StreamBaseE, i64 0, i32 0, i64 2), ptr %add.ptr.i, align 8
  %default_listener_.i.i = getelementptr inbounds i8, ptr %this, i64 -24
  tail call void @_ZN4node14StreamListenerD2Ev(ptr noundef nonnull align 8 dereferenceable(24) %default_listener_.i.i) #22
  tail call void @_ZN4node14StreamResourceD2Ev(ptr noundef nonnull align 8 dereferenceable(32) %add.ptr.i) #22
  tail call void @_ZN4node9AsyncWrapD2Ev(ptr noundef nonnull align 8 dereferenceable(56) %0) #22
  ret void
}